target datalayout = "e-m:e-p270:32:32-p271:32:32-p272:64:64-i64:64-i128:128-f80:128-n8:16:32:64-S128"
target triple = "x86_64-pc-linux-gnu"

%struct.H5T_t = type { %struct.H5O_shared_t, ptr, %struct.H5O_loc_t, %struct.H5G_name_t, ptr }
%struct.H5O_shared_t = type { i32, ptr, i32, %union.anon }
%union.anon = type { %struct.H5O_mesg_loc_t }
%struct.H5O_mesg_loc_t = type { i32, i64 }
%struct.H5O_loc_t = type { ptr, i64, i8 }
%struct.H5G_name_t = type { ptr, ptr, i32 }
%struct.H5T_shared_t = type { i64, i32, i32, i64, i32, i8, ptr, ptr, %union.anon.0 }
%union.anon.0 = type { %struct.H5T_array_t }
%struct.H5T_array_t = type { i64, i32, [32 x i64] }
%struct.H5T_opaque_t = type { ptr }

@H5_libinit_g = external global i8, align 1
@H5_libterm_g = external global i8, align 1
@.str = private unnamed_addr constant [103 x i8] c"generated/home/dtcxzyw/WorkSpace/Projects/compilers/llvm-opt-benchmark/bench/hdf5/hdf5/src/H5Topaque.c\00", align 1
@__func__.H5Tset_tag = private unnamed_addr constant [11 x i8] c"H5Tset_tag\00", align 1
@H5E_FUNC_g = external global i64, align 8
@H5E_CANTINIT_g = external global i64, align 8
@.str.1 = private unnamed_addr constant [30 x i8] c"library initialization failed\00", align 1
@H5E_CANTSET_g = external global i64, align 8
@.str.2 = private unnamed_addr constant [22 x i8] c"can't set API context\00", align 1
@H5E_ARGS_g = external global i64, align 8
@H5E_BADTYPE_g = external global i64, align 8
@.str.3 = private unnamed_addr constant [16 x i8] c"not a data type\00", align 1
@.str.4 = private unnamed_addr constant [23 x i8] c"data type is read-only\00", align 1
@.str.5 = private unnamed_addr constant [24 x i8] c"not an opaque data type\00", align 1
@H5E_BADVALUE_g = external global i64, align 8
@.str.6 = private unnamed_addr constant [7 x i8] c"no tag\00", align 1
@.str.7 = private unnamed_addr constant [13 x i8] c"tag too long\00", align 1

; Function Attrs: nounwind uwtable
define i32 @H5Tset_tag(i64 noundef %0, ptr noundef %1) #0 {
  %3 = alloca i64, align 8
  %4 = alloca ptr, align 8
  %5 = alloca ptr, align 8
  %6 = alloca i32, align 4
  %7 = alloca i8, align 1
  %8 = alloca i8, align 1
  store i64 %0, ptr %3, align 8
  store ptr %1, ptr %4, align 8
  store ptr null, ptr %5, align 8
  store i32 0, ptr %6, align 4
  store i8 0, ptr %7, align 1
  store i8 0, ptr %8, align 1
  %9 = load i8, ptr @H5_libinit_g, align 1
  %10 = trunc i8 %9 to i1
  br i1 %10, label %15, label %11

11:                                               ; preds = %2
  %12 = load i8, ptr @H5_libterm_g, align 1
  %13 = trunc i8 %12 to i1
  %14 = xor i1 %13, true
  br label %15

15:                                               ; preds = %11, %2
  %16 = phi i1 [ false, %2 ], [ %14, %11 ]
  %17 = xor i1 %16, true
  %18 = xor i1 %17, true
  %19 = zext i1 %18 to i32
  %20 = sext i32 %19 to i64
  %21 = icmp ne i64 %20, 0
  br i1 %21, label %22, label %46

22:                                               ; preds = %15
  %23 = call i32 @H5_init_library()
  %24 = icmp slt i32 %23, 0
  %25 = xor i1 %24, true
  %26 = xor i1 %25, true
  %27 = zext i1 %26 to i32
  %28 = sext i32 %27 to i64
  %29 = icmp ne i64 %28, 0
  br i1 %29, label %30, label %45

30:                                               ; preds = %22
  br label %31

31:                                               ; preds = %30
  br label %32

32:                                               ; preds = %31
  br label %33

33:                                               ; preds = %32
  %34 = load i64, ptr @H5E_FUNC_g, align 8
  %35 = load i64, ptr @H5E_CANTINIT_g, align 8
  %36 = call i32 (ptr, ptr, i32, i64, i64, ptr, ...) @H5E_printf_stack(ptr noundef @.str, ptr noundef @__func__.H5Tset_tag, i32 noundef 41, i64 noundef %34, i64 noundef %35, ptr noundef @.str.1)
  br label %37

37:                                               ; preds = %33
  store i8 1, ptr %8, align 1
  %38 = load i8, ptr %8, align 1
  %39 = trunc i8 %38 to i1
  %40 = zext i1 %39 to i8
  store i8 %40, ptr %8, align 1
  br label %41

41:                                               ; preds = %37
  br label %42

42:                                               ; preds = %41
  store i32 -1, ptr %6, align 4
  br label %200

43:                                               ; No predecessors!
  br label %44

44:                                               ; preds = %43
  br label %45

45:                                               ; preds = %44, %22
  br label %46

46:                                               ; preds = %45, %15
  %47 = call i32 @H5CX_push()
  %48 = icmp slt i32 %47, 0
  %49 = xor i1 %48, true
  %50 = xor i1 %49, true
  %51 = zext i1 %50 to i32
  %52 = sext i32 %51 to i64
  %53 = icmp ne i64 %52, 0
  br i1 %53, label %54, label %69

54:                                               ; preds = %46
  br label %55

55:                                               ; preds = %54
  br label %56

56:                                               ; preds = %55
  br label %57

57:                                               ; preds = %56
  %58 = load i64, ptr @H5E_FUNC_g, align 8
  %59 = load i64, ptr @H5E_CANTSET_g, align 8
  %60 = call i32 (ptr, ptr, i32, i64, i64, ptr, ...) @H5E_printf_stack(ptr noundef @.str, ptr noundef @__func__.H5Tset_tag, i32 noundef 41, i64 noundef %58, i64 noundef %59, ptr noundef @.str.2)
  br label %61

61:                                               ; preds = %57
  store i8 1, ptr %8, align 1
  %62 = load i8, ptr %8, align 1
  %63 = trunc i8 %62 to i1
  %64 = zext i1 %63 to i8
  store i8 %64, ptr %8, align 1
  br label %65

65:                                               ; preds = %61
  br label %66

66:                                               ; preds = %65
  store i32 -1, ptr %6, align 4
  br label %200

67:                                               ; No predecessors!
  br label %68

68:                                               ; preds = %67
  br label %70

69:                                               ; preds = %46
  store i8 1, ptr %7, align 1
  br label %70

70:                                               ; preds = %69, %68
  %71 = call i32 @H5E_clear_stack()
  %72 = load i64, ptr %3, align 8
  %73 = call ptr @H5I_object_verify(i64 noundef %72, i32 noundef 3)
  store ptr %73, ptr %5, align 8
  %74 = icmp eq ptr null, %73
  br i1 %74, label %75, label %90

75:                                               ; preds = %70
  br label %76

76:                                               ; preds = %75
  br label %77

77:                                               ; preds = %76
  br label %78

78:                                               ; preds = %77
  %79 = load i64, ptr @H5E_ARGS_g, align 8
  %80 = load i64, ptr @H5E_BADTYPE_g, align 8
  %81 = call i32 (ptr, ptr, i32, i64, i64, ptr, ...) @H5E_printf_stack(ptr noundef @.str, ptr noundef @__func__.H5Tset_tag, i32 noundef 45, i64 noundef %79, i64 noundef %80, ptr noundef @.str.3)
  br label %82

82:                                               ; preds = %78
  store i8 1, ptr %8, align 1
  %83 = load i8, ptr %8, align 1
  %84 = trunc i8 %83 to i1
  %85 = zext i1 %84 to i8
  store i8 %85, ptr %8, align 1
  br label %86

86:                                               ; preds = %82
  br label %87

87:                                               ; preds = %86
  store i32 -1, ptr %6, align 4
  br label %200

88:                                               ; No predecessors!
  br label %89

89:                                               ; preds = %88
  br label %90

90:                                               ; preds = %89, %70
  %91 = load ptr, ptr %5, align 8
  %92 = getelementptr inbounds %struct.H5T_t, ptr %91, i32 0, i32 1
  %93 = load ptr, ptr %92, align 8
  %94 = getelementptr inbounds %struct.H5T_shared_t, ptr %93, i32 0, i32 1
  %95 = load i32, ptr %94, align 8
  %96 = icmp ne i32 0, %95
  br i1 %96, label %97, label %112

97:                                               ; preds = %90
  br label %98

98:                                               ; preds = %97
  br label %99

99:                                               ; preds = %98
  br label %100

100:                                              ; preds = %99
  %101 = load i64, ptr @H5E_ARGS_g, align 8
  %102 = load i64, ptr @H5E_CANTINIT_g, align 8
  %103 = call i32 (ptr, ptr, i32, i64, i64, ptr, ...) @H5E_printf_stack(ptr noundef @.str, ptr noundef @__func__.H5Tset_tag, i32 noundef 47, i64 noundef %101, i64 noundef %102, ptr noundef @.str.4)
  br label %104

104:                                              ; preds = %100
  store i8 1, ptr %8, align 1
  %105 = load i8, ptr %8, align 1
  %106 = trunc i8 %105 to i1
  %107 = zext i1 %106 to i8
  store i8 %107, ptr %8, align 1
  br label %108

108:                                              ; preds = %104
  br label %109

109:                                              ; preds = %108
  store i32 -1, ptr %6, align 4
  br label %200

110:                                              ; No predecessors!
  br label %111

111:                                              ; preds = %110
  br label %112

112:                                              ; preds = %111, %90
  br label %113

113:                                              ; preds = %120, %112
  %114 = load ptr, ptr %5, align 8
  %115 = getelementptr inbounds %struct.H5T_t, ptr %114, i32 0, i32 1
  %116 = load ptr, ptr %115, align 8
  %117 = getelementptr inbounds %struct.H5T_shared_t, ptr %116, i32 0, i32 6
  %118 = load ptr, ptr %117, align 8
  %119 = icmp ne ptr %118, null
  br i1 %119, label %120, label %126

120:                                              ; preds = %113
  %121 = load ptr, ptr %5, align 8
  %122 = getelementptr inbounds %struct.H5T_t, ptr %121, i32 0, i32 1
  %123 = load ptr, ptr %122, align 8
  %124 = getelementptr inbounds %struct.H5T_shared_t, ptr %123, i32 0, i32 6
  %125 = load ptr, ptr %124, align 8
  store ptr %125, ptr %5, align 8
  br label %113

126:                                              ; preds = %113
  %127 = load ptr, ptr %5, align 8
  %128 = getelementptr inbounds %struct.H5T_t, ptr %127, i32 0, i32 1
  %129 = load ptr, ptr %128, align 8
  %130 = getelementptr inbounds %struct.H5T_shared_t, ptr %129, i32 0, i32 2
  %131 = load i32, ptr %130, align 4
  %132 = icmp ne i32 5, %131
  br i1 %132, label %133, label %148

133:                                              ; preds = %126
  br label %134

134:                                              ; preds = %133
  br label %135

135:                                              ; preds = %134
  br label %136

136:                                              ; preds = %135
  %137 = load i64, ptr @H5E_ARGS_g, align 8
  %138 = load i64, ptr @H5E_BADTYPE_g, align 8
  %139 = call i32 (ptr, ptr, i32, i64, i64, ptr, ...) @H5E_printf_stack(ptr noundef @.str, ptr noundef @__func__.H5Tset_tag, i32 noundef 51, i64 noundef %137, i64 noundef %138, ptr noundef @.str.5)
  br label %140

140:                                              ; preds = %136
  store i8 1, ptr %8, align 1
  %141 = load i8, ptr %8, align 1
  %142 = trunc i8 %141 to i1
  %143 = zext i1 %142 to i8
  store i8 %143, ptr %8, align 1
  br label %144

144:                                              ; preds = %140
  br label %145

145:                                              ; preds = %144
  store i32 -1, ptr %6, align 4
  br label %200

146:                                              ; No predecessors!
  br label %147

147:                                              ; preds = %146
  br label %148

148:                                              ; preds = %147, %126
  %149 = load ptr, ptr %4, align 8
  %150 = icmp ne ptr %149, null
  br i1 %150, label %166, label %151

151:                                              ; preds = %148
  br label %152

152:                                              ; preds = %151
  br label %153

153:                                              ; preds = %152
  br label %154

154:                                              ; preds = %153
  %155 = load i64, ptr @H5E_ARGS_g, align 8
  %156 = load i64, ptr @H5E_BADVALUE_g, align 8
  %157 = call i32 (ptr, ptr, i32, i64, i64, ptr, ...) @H5E_printf_stack(ptr noundef @.str, ptr noundef @__func__.H5Tset_tag, i32 noundef 53, i64 noundef %155, i64 noundef %156, ptr noundef @.str.6)
  br label %158

158:                                              ; preds = %154
  store i8 1, ptr %8, align 1
  %159 = load i8, ptr %8, align 1
  %160 = trunc i8 %159 to i1
  %161 = zext i1 %160 to i8
  store i8 %161, ptr %8, align 1
  br label %162

162:                                              ; preds = %158
  br label %163

163:                                              ; preds = %162
  store i32 -1, ptr %6, align 4
  br label %200

164:                                              ; No predecessors!
  br label %165

165:                                              ; preds = %164
  br label %166

166:                                              ; preds = %165, %148
  %167 = load ptr, ptr %4, align 8
  %168 = call i64 @strlen(ptr noundef %167) #3
  %169 = icmp uge i64 %168, 256
  br i1 %169, label %170, label %185

170:                                              ; preds = %166
  br label %171

171:                                              ; preds = %170
  br label %172

172:                                              ; preds = %171
  br label %173

173:                                              ; preds = %172
  %174 = load i64, ptr @H5E_ARGS_g, align 8
  %175 = load i64, ptr @H5E_BADVALUE_g, align 8
  %176 = call i32 (ptr, ptr, i32, i64, i64, ptr, ...) @H5E_printf_stack(ptr noundef @.str, ptr noundef @__func__.H5Tset_tag, i32 noundef 55, i64 noundef %174, i64 noundef %175, ptr noundef @.str.7)
  br label %177

177:                                              ; preds = %173
  store i8 1, ptr %8, align 1
  %178 = load i8, ptr %8, align 1
  %179 = trunc i8 %178 to i1
  %180 = zext i1 %179 to i8
  store i8 %180, ptr %8, align 1
  br label %181

181:                                              ; preds = %177
  br label %182

182:                                              ; preds = %181
  store i32 -1, ptr %6, align 4
  br label %200

183:                                              ; No predecessors!
  br label %184

184:                                              ; preds = %183
  br label %185

185:                                              ; preds = %184, %166
  %186 = load ptr, ptr %5, align 8
  %187 = getelementptr inbounds %struct.H5T_t, ptr %186, i32 0, i32 1
  %188 = load ptr, ptr %187, align 8
  %189 = getelementptr inbounds %struct.H5T_shared_t, ptr %188, i32 0, i32 8
  %190 = getelementptr inbounds %struct.H5T_opaque_t, ptr %189, i32 0, i32 0
  %191 = load ptr, ptr %190, align 8
  %192 = call ptr @H5MM_xfree(ptr noundef %191)
  %193 = load ptr, ptr %4, align 8
  %194 = call noalias ptr @H5MM_strdup(ptr noundef %193)
  %195 = load ptr, ptr %5, align 8
  %196 = getelementptr inbounds %struct.H5T_t, ptr %195, i32 0, i32 1
  %197 = load ptr, ptr %196, align 8
  %198 = getelementptr inbounds %struct.H5T_shared_t, ptr %197, i32 0, i32 8
  %199 = getelementptr inbounds %struct.H5T_opaque_t, ptr %198, i32 0, i32 0
  store ptr %194, ptr %199, align 8
  br label %200

200:                                              ; preds = %185, %182, %163, %145, %109, %87, %66, %42
  %201 = load i8, ptr %7, align 1
  %202 = trunc i8 %201 to i1
  %203 = xor i1 %202, true
  %204 = xor i1 %203, true
  %205 = zext i1 %204 to i32
  %206 = sext i32 %205 to i64
  %207 = icmp ne i64 %206, 0
  br i1 %207, label %208, label %210

208:                                              ; preds = %200
  %209 = call i32 @H5CX_pop(i1 noundef zeroext true)
  store i8 0, ptr %7, align 1
  br label %210

210:                                              ; preds = %208, %200
  %211 = load i8, ptr %8, align 1
  %212 = trunc i8 %211 to i1
  %213 = xor i1 %212, true
  %214 = xor i1 %213, true
  %215 = zext i1 %214 to i32
  %216 = sext i32 %215 to i64
  %217 = icmp ne i64 %216, 0
  br i1 %217, label %218, label %220

218:                                              ; preds = %210
  %219 = call i32 @H5E_dump_api_stack()
  br label %220

220:                                              ; preds = %218, %210
  %221 = load i32, ptr %6, align 4
  ret i32 %221
}