; Function Attrs: nounwind uwtable
define range(i32 -1, 1) i32 @H5Tset_tag(i64 noundef %0, ptr noundef %1) local_unnamed_addr #0 {
  %3 = load i8, ptr @H5_libinit_g, align 1
  %4 = trunc i8 %3 to i1
  %5 = load i8, ptr @H5_libterm_g, align 1
  %6 = trunc i8 %5 to i1
  %7 = select i1 %4, i1 true, i1 %6
  br i1 %7, label %15, label %8

8:                                                ; preds = %2
  %9 = tail call i32 @H5_init_library() #3
  %10 = icmp slt i32 %9, 0
  br i1 %10, label %11, label %15

11:                                               ; preds = %8
  %12 = load i64, ptr @H5E_FUNC_g, align 8
  %13 = load i64, ptr @H5E_CANTINIT_g, align 8
  %14 = tail call i32 (ptr, ptr, i32, i64, i64, ptr, ...) @H5E_printf_stack(ptr noundef nonnull @.str, ptr noundef nonnull @__func__.H5Tset_tag, i32 noundef 41, i64 noundef %12, i64 noundef %13, ptr noundef nonnull @.str.1) #3
  br label %.thread36

15:                                               ; preds = %8, %2
  %16 = tail call i32 @H5CX_push() #3
  %17 = icmp slt i32 %16, 0
  br i1 %17, label %18, label %22

18:                                               ; preds = %15
  %19 = load i64, ptr @H5E_FUNC_g, align 8
  %20 = load i64, ptr @H5E_CANTSET_g, align 8
  %21 = tail call i32 (ptr, ptr, i32, i64, i64, ptr, ...) @H5E_printf_stack(ptr noundef nonnull @.str, ptr noundef nonnull @__func__.H5Tset_tag, i32 noundef 41, i64 noundef %19, i64 noundef %20, ptr noundef nonnull @.str.2) #3
  br label %.thread36

22:                                               ; preds = %15
  %23 = tail call i32 @H5E_clear_stack() #3
  %24 = tail call ptr @H5I_object_verify(i64 noundef %0, i32 noundef 3) #3
  %25 = icmp eq ptr %24, null
  br i1 %25, label %26, label %30

26:                                               ; preds = %22
  %27 = load i64, ptr @H5E_ARGS_g, align 8
  %28 = load i64, ptr @H5E_BADTYPE_g, align 8
  %29 = tail call i32 (ptr, ptr, i32, i64, i64, ptr, ...) @H5E_printf_stack(ptr noundef nonnull @.str, ptr noundef nonnull @__func__.H5Tset_tag, i32 noundef 45, i64 noundef %27, i64 noundef %28, ptr noundef nonnull @.str.3) #3
  br label %.thread42

30:                                               ; preds = %22
  %31 = getelementptr inbounds i8, ptr %24, i64 40
  %32 = load ptr, ptr %31, align 8
  %33 = getelementptr inbounds i8, ptr %32, i64 8
  %34 = load i32, ptr %33, align 8
  %.not = icmp eq i32 %34, 0
  br i1 %.not, label %.preheader, label %35

35:                                               ; preds = %30
  %36 = load i64, ptr @H5E_ARGS_g, align 8
  %37 = load i64, ptr @H5E_CANTINIT_g, align 8
  %38 = tail call i32 (ptr, ptr, i32, i64, i64, ptr, ...) @H5E_printf_stack(ptr noundef nonnull @.str, ptr noundef nonnull @__func__.H5Tset_tag, i32 noundef 47, i64 noundef %36, i64 noundef %37, ptr noundef nonnull @.str.4) #3
  br label %.thread42

.preheader:                                       ; preds = %30, %.preheader
  %.021 = phi ptr [ %42, %.preheader ], [ %24, %30 ]
  %39 = getelementptr inbounds i8, ptr %.021, i64 40
  %40 = load ptr, ptr %39, align 8
  %41 = getelementptr inbounds i8, ptr %40, i64 32
  %42 = load ptr, ptr %41, align 8
  %.not25 = icmp eq ptr %42, null
  br i1 %.not25, label %43, label %.preheader

43:                                               ; preds = %.preheader
  %44 = getelementptr inbounds i8, ptr %.021, i64 40
  %45 = getelementptr inbounds i8, ptr %40, i64 12
  %46 = load i32, ptr %45, align 4
  %.not26 = icmp eq i32 %46, 5
  br i1 %.not26, label %51, label %47

47:                                               ; preds = %43
  %48 = load i64, ptr @H5E_ARGS_g, align 8
  %49 = load i64, ptr @H5E_BADTYPE_g, align 8
  %50 = tail call i32 (ptr, ptr, i32, i64, i64, ptr, ...) @H5E_printf_stack(ptr noundef nonnull @.str, ptr noundef nonnull @__func__.H5Tset_tag, i32 noundef 51, i64 noundef %48, i64 noundef %49, ptr noundef nonnull @.str.5) #3
  br label %.thread42

51:                                               ; preds = %43
  %.not27 = icmp eq ptr %1, null
  br i1 %.not27, label %52, label %56

52:                                               ; preds = %51
  %53 = load i64, ptr @H5E_ARGS_g, align 8
  %54 = load i64, ptr @H5E_BADVALUE_g, align 8
  %55 = tail call i32 (ptr, ptr, i32, i64, i64, ptr, ...) @H5E_printf_stack(ptr noundef nonnull @.str, ptr noundef nonnull @__func__.H5Tset_tag, i32 noundef 53, i64 noundef %53, i64 noundef %54, ptr noundef nonnull @.str.6) #3
  br label %.thread42

56:                                               ; preds = %51
  %57 = tail call i64 @strlen(ptr noundef nonnull dereferenceable(1) %1) #4
  %58 = icmp ugt i64 %57, 255
  br i1 %58, label %59, label %64

59:                                               ; preds = %56
  %60 = load i64, ptr @H5E_ARGS_g, align 8
  %61 = load i64, ptr @H5E_BADVALUE_g, align 8
  %62 = tail call i32 (ptr, ptr, i32, i64, i64, ptr, ...) @H5E_printf_stack(ptr noundef nonnull @.str, ptr noundef nonnull @__func__.H5Tset_tag, i32 noundef 55, i64 noundef %60, i64 noundef %61, ptr noundef nonnull @.str.7) #3
  br label %.thread42

.thread42:                                        ; preds = %52, %59, %47, %35, %26
  %63 = tail call i32 @H5CX_pop(i1 noundef zeroext true) #3
  br label %.thread36

64:                                               ; preds = %56
  %65 = getelementptr inbounds i8, ptr %40, i64 48
  %66 = load ptr, ptr %65, align 8
  %67 = tail call ptr @H5MM_xfree(ptr noundef %66) #3
  %68 = tail call noalias ptr @H5MM_strdup(ptr noundef nonnull %1) #3
  %69 = load ptr, ptr %44, align 8
  %70 = getelementptr inbounds i8, ptr %69, i64 48
  store ptr %68, ptr %70, align 8
  %71 = tail call i32 @H5CX_pop(i1 noundef zeroext true) #3
  br label %73

.thread36:                                        ; preds = %18, %11, %.thread42
  %72 = tail call i32 @H5E_dump_api_stack() #3
  br label %73

73:                                               ; preds = %64, %.thread36
  %.0203139 = phi i32 [ -1, %.thread36 ], [ 0, %64 ]
  ret i32 %.0203139
}